target datalayout = "e-m:e-p270:32:32-p271:32:32-p272:64:64-i64:64-i128:128-f80:128-n8:16:32:64-S128"
target triple = "x86_64-pc-linux-gnu"

%struct.strvec = type { ptr, i64, i64 }
%struct.anon.10 = type { %struct.contains_cache, %struct.contains_cache }
%struct.contains_cache = type { i32, i32, i32, ptr }
%struct.object_id = type { [32 x i8], i32 }
%struct.ref_filter = type { ptr, %struct.strvec, %struct.oid_array, ptr, ptr, ptr, ptr, i8, i32, i32, i32, i32, %struct.anon.10 }
%struct.oid_array = type { ptr, i64, i64, i32 }
%struct.option = type { i32, i32, ptr, ptr, ptr, ptr, i32, ptr, i64, ptr, i64, ptr }

@the_repository = external global ptr, align 8
@.str.16 = private unnamed_addr constant [13 x i8] c"ref-filter.c\00", align 1
@.str.20 = private unnamed_addr constant [41 x i8] c"option callback does not expect negation\00", align 1
@.str.21 = private unnamed_addr constant [25 x i8] c"malformed object name %s\00", align 1
@.str.22 = private unnamed_addr constant [35 x i8] c"option `%s' must point to a commit\00", align 1
@.str.23 = private unnamed_addr constant [3 x i8] c"no\00", align 1

; Function Attrs: inlinehint nounwind uwtable
define internal i32 @const_error() #1 {
  ret i32 -1
}

; Function Attrs: nounwind uwtable
define dso_local i32 @parse_opt_merge_filter(ptr noundef %0, ptr noundef %1, i32 noundef %2) #0 {
  %4 = alloca i32, align 4
  %5 = alloca ptr, align 8
  %6 = alloca ptr, align 8
  %7 = alloca i32, align 4
  %8 = alloca ptr, align 8
  %9 = alloca %struct.object_id, align 4
  %10 = alloca ptr, align 8
  %11 = alloca i32, align 4
  store ptr %0, ptr %5, align 8, !tbaa !195
  store ptr %1, ptr %6, align 8, !tbaa !13
  store i32 %2, ptr %7, align 4, !tbaa !15
  call void @llvm.lifetime.start.p0(i64 8, ptr %8) #11
  %12 = load ptr, ptr %5, align 8, !tbaa !195
  %13 = getelementptr inbounds nuw %struct.option, ptr %12, i32 0, i32 3
  %14 = load ptr, ptr %13, align 8, !tbaa !197
  store ptr %14, ptr %8, align 8, !tbaa !113
  call void @llvm.lifetime.start.p0(i64 36, ptr %9) #11
  call void @llvm.lifetime.start.p0(i64 8, ptr %10) #11
  br label %15

15:                                               ; preds = %3
  %16 = load i32, ptr %7, align 4, !tbaa !15
  %17 = icmp ne i32 %16, 0
  br i1 %17, label %18, label %19

18:                                               ; preds = %15
  call void (ptr, i32, ptr, ...) @BUG_fl(ptr noundef @.str.16, i32 noundef 3629, ptr noundef @.str.20) #13
  unreachable

19:                                               ; preds = %15
  br label %20

20:                                               ; preds = %19
  br label %21

21:                                               ; preds = %20
  %22 = load ptr, ptr @the_repository, align 8, !tbaa !56
  %23 = load ptr, ptr %6, align 8, !tbaa !13
  %24 = call i32 @repo_get_oid(ptr noundef %22, ptr noundef %23, ptr noundef %9)
  %25 = icmp ne i32 %24, 0
  br i1 %25, label %26, label %29

26:                                               ; preds = %21
  %27 = call ptr @_(ptr noundef @.str.21)
  %28 = load ptr, ptr %6, align 8, !tbaa !13
  call void (ptr, ...) @die(ptr noundef %27, ptr noundef %28) #13
  unreachable

29:                                               ; preds = %21
  %30 = load ptr, ptr @the_repository, align 8, !tbaa !56
  %31 = call ptr @lookup_commit_reference_gently(ptr noundef %30, ptr noundef %9, i32 noundef 0)
  store ptr %31, ptr %10, align 8, !tbaa !99
  %32 = load ptr, ptr %10, align 8, !tbaa !99
  %33 = icmp ne ptr %32, null
  br i1 %33, label %41, label %34

34:                                               ; preds = %29
  %35 = call ptr @_(ptr noundef @.str.22)
  %36 = load ptr, ptr %5, align 8, !tbaa !195
  %37 = getelementptr inbounds nuw %struct.option, ptr %36, i32 0, i32 2
  %38 = load ptr, ptr %37, align 8, !tbaa !199
  %39 = call i32 (ptr, ...) @error(ptr noundef %35, ptr noundef %38)
  %40 = call i32 @const_error()
  store i32 %40, ptr %4, align 4
  store i32 1, ptr %11, align 4
  br label %58

41:                                               ; preds = %29
  %42 = load ptr, ptr %5, align 8, !tbaa !195
  %43 = getelementptr inbounds nuw %struct.option, ptr %42, i32 0, i32 2
  %44 = load ptr, ptr %43, align 8, !tbaa !199
  %45 = call i32 @starts_with(ptr noundef %44, ptr noundef @.str.23)
  %46 = icmp ne i32 %45, 0
  br i1 %46, label %47, label %52

47:                                               ; preds = %41
  %48 = load ptr, ptr %10, align 8, !tbaa !99
  %49 = load ptr, ptr %8, align 8, !tbaa !113
  %50 = getelementptr inbounds nuw %struct.ref_filter, ptr %49, i32 0, i32 6
  %51 = call ptr @commit_list_insert(ptr noundef %48, ptr noundef %50)
  br label %57

52:                                               ; preds = %41
  %53 = load ptr, ptr %10, align 8, !tbaa !99
  %54 = load ptr, ptr %8, align 8, !tbaa !113
  %55 = getelementptr inbounds nuw %struct.ref_filter, ptr %54, i32 0, i32 5
  %56 = call ptr @commit_list_insert(ptr noundef %53, ptr noundef %55)
  br label %57

57:                                               ; preds = %52, %47
  store i32 0, ptr %4, align 4
  store i32 1, ptr %11, align 4
  br label %58

58:                                               ; preds = %57, %34
  call void @llvm.lifetime.end.p0(i64 8, ptr %10) #11
  call void @llvm.lifetime.end.p0(i64 36, ptr %9) #11
  call void @llvm.lifetime.end.p0(i64 8, ptr %8) #11
  %59 = load i32, ptr %4, align 4
  ret i32 %59
}