; Function Attrs: nounwind uwtable
define dso_local range(i32 -1, 1) i32 @parse_opt_merge_filter(ptr noundef readonly captures(none) %0, ptr noundef %1, i32 noundef %2) local_unnamed_addr #0 {
  %4 = alloca %struct.object_id, align 4
  %5 = getelementptr inbounds nuw i8, ptr %0, i64 16
  %6 = load ptr, ptr %5, align 8, !tbaa !197
  call void @llvm.lifetime.start.p0(i64 36, ptr nonnull %4) #23
  %.not = icmp eq i32 %2, 0
  br i1 %.not, label %8, label %7

7:                                                ; preds = %3
  tail call void (ptr, i32, ptr, ...) @BUG_fl(ptr noundef nonnull @.str.16, i32 noundef 3629, ptr noundef nonnull @.str.20) #25
  unreachable

8:                                                ; preds = %3
  %9 = load ptr, ptr @the_repository, align 8, !tbaa !49
  %10 = call i32 @repo_get_oid(ptr noundef %9, ptr noundef %1, ptr noundef nonnull %4) #23
  %.not12 = icmp eq i32 %10, 0
  br i1 %.not12, label %13, label %11

11:                                               ; preds = %8
  %12 = call fastcc ptr @_(ptr noundef nonnull @.str.21)
  call void (ptr, ...) @die(ptr noundef %12, ptr noundef %1) #25
  unreachable

13:                                               ; preds = %8
  %14 = load ptr, ptr @the_repository, align 8, !tbaa !49
  %15 = call ptr @lookup_commit_reference_gently(ptr noundef %14, ptr noundef nonnull %4, i32 noundef 0) #23
  %.not13 = icmp eq ptr %15, null
  br i1 %.not13, label %16, label %23

16:                                               ; preds = %13
  %17 = load i32, ptr @git_gettext_enabled, align 4, !tbaa !4
  %.not4.i = icmp eq i32 %17, 0
  br i1 %.not4.i, label %_.exit, label %18

18:                                               ; preds = %16
  %19 = call ptr @dcgettext(ptr noundef null, ptr noundef nonnull @.str.22, i32 noundef 5) #23
  br label %_.exit

_.exit:                                           ; preds = %16, %18
  %.0.i = phi ptr [ %19, %18 ], [ @.str.22, %16 ]
  %20 = getelementptr inbounds nuw i8, ptr %0, i64 8
  %21 = load ptr, ptr %20, align 8, !tbaa !199
  %22 = call i32 (ptr, ...) @error(ptr noundef %.0.i, ptr noundef %21) #23
  br label %33

23:                                               ; preds = %13
  %24 = getelementptr inbounds nuw i8, ptr %0, i64 8
  %25 = load ptr, ptr %24, align 8, !tbaa !199
  %26 = call i32 @starts_with(ptr noundef %25, ptr noundef nonnull @.str.23) #23
  %.not14 = icmp eq i32 %26, 0
  br i1 %.not14, label %30, label %27

27:                                               ; preds = %23
  %28 = getelementptr inbounds nuw i8, ptr %6, i64 88
  %29 = call ptr @commit_list_insert(ptr noundef nonnull %15, ptr noundef nonnull %28) #23
  br label %33

30:                                               ; preds = %23
  %31 = getelementptr inbounds nuw i8, ptr %6, i64 80
  %32 = call ptr @commit_list_insert(ptr noundef nonnull %15, ptr noundef nonnull %31) #23
  br label %33

33:                                               ; preds = %27, %30, %_.exit
  %.0 = phi i32 [ -1, %_.exit ], [ 0, %30 ], [ 0, %27 ]
  call void @llvm.lifetime.end.p0(i64 36, ptr nonnull %4) #23
  ret i32 %.0
}